; Function Attrs: mustprogress nounwind uwtable
define void @_ZN11OpenImageIO6v3_1_08TypeDescC2ENS0_17basic_string_viewIcSt11char_traitsIcEEE(ptr noundef nonnull writeonly align 4 captures(none) dereferenceable(8) initializes((0, 8)) %0, ptr noundef readonly captures(none) %1) unnamed_addr #5 align 2 {
  %3 = alloca %"class.OpenImageIO::v3_1_0::basic_string_view", align 8
  store i8 0, ptr %0, align 4, !tbaa !3
  %4 = getelementptr inbounds nuw i8, ptr %0, i64 1
  store i8 1, ptr %4, align 1, !tbaa !8
  %5 = getelementptr inbounds nuw i8, ptr %0, i64 2
  store i8 0, ptr %5, align 2, !tbaa !9
  %6 = getelementptr inbounds nuw i8, ptr %0, i64 3
  store i8 0, ptr %6, align 1, !tbaa !10
  %7 = getelementptr inbounds nuw i8, ptr %0, i64 4
  store i32 0, ptr %7, align 4, !tbaa !11
  %8 = load ptr, ptr %1, align 8, !tbaa !12
  store ptr %8, ptr %3, align 8, !tbaa !12
  %9 = getelementptr inbounds nuw i8, ptr %3, i64 8
  %10 = getelementptr inbounds nuw i8, ptr %1, i64 8
  %11 = load i64, ptr %10, align 8, !tbaa !17
  store i64 %11, ptr %9, align 8, !tbaa !17
  %12 = call noundef i64 @_ZN11OpenImageIO6v3_1_08TypeDesc10fromstringENS0_17basic_string_viewIcSt11char_traitsIcEEE(ptr noundef nonnull align 4 dereferenceable(8) %0, ptr noundef nonnull %3)
  ret void
}